Certificate:
    Data:
        Version: 3 (0x2)
        Serial Number:
            06:ea:10:7d:f7:d3:ed:7b:85:3e:ec:15:f2:53:19:de
        Signature Algorithm: sha256WithRSAEncryption
        Issuer: C = US, O = DigiCert Inc, OU = www.digicert.com, CN = DigiCert SHA2 High Assurance Server CA
        Validity
            Not Before: Mar 19 00:00:00 2022 GMT
            Not After : Jun 17 23:59:59 2022 GMT
        Subject: C = US, ST = California, L = Menlo Park, O = "Facebook, Inc.", CN = *.facebook.com
        Subject Public Key Info:
            Public Key Algorithm: id-ecPublicKey
                Public-Key: (256 bit)
                pub:
                    04:5d:f6:dd:01:f8:0c:8f:61:bf:08:ae:ea:c0:a2:
                    51:3c:17:62:5e:4f:3b:6b:69:f7:cf:33:7c:d5:9a:
                    68:ea:5d:81:59:4d:82:52:c3:03:74:87:c9:4d:f7:
                    0b:b3:54:8c:56:25:45:49:70:21:c5:2f:fb:25:2f:
                    37:53:d6:88:03
                ASN1 OID: prime256v1
                NIST CURVE: P-256
        X509v3 extensions:
            X509v3 Authority Key Identifier: 
                keyid:51:68:FF:90:AF:02:07:75:3C:CC:D9:65:64:62:A2:12:B8:59:72:3B

            X509v3 Subject Key Identifier: 
                EA:AE:0D:A1:62:45:84:94:BB:0C:0B:04:ED:38:B9:B2:FA:16:64:93
            X509v3 Subject Alternative Name: 
                DNS:*.facebook.com, DNS:*.facebook.net, DNS:*.fbcdn.net, DNS:*.fbsbx.com, DNS:*.m.facebook.com, DNS:*.messenger.com, DNS:*.xx.fbcdn.net, DNS:*.xy.fbcdn.net, DNS:*.xz.fbcdn.net, DNS:facebook.com, DNS:messenger.com
            X509v3 Key Usage: critical
                Digital Signature
            X509v3 Extended Key Usage: 
                TLS Web Server Authentication, TLS Web Client Authentication
            X509v3 CRL Distribution Points: 

                Full Name:
                  URI:http://crl3.digicert.com/sha2-ha-server-g6.crl

                Full Name:
                  URI:http://crl4.digicert.com/sha2-ha-server-g6.crl

            X509v3 Certificate Policies: 
                Policy: 2.23.140.1.2.2
                  CPS: http://www.digicert.com/CPS

            Authority Information Access: 
                OCSP - URI:http://ocsp.digicert.com
                CA Issuers - URI:http://cacerts.digicert.com/DigiCertSHA2HighAssuranceServerCA.crt

            X509v3 Basic Constraints: 
                CA:FALSE
            CT Precertificate SCTs: 
                Signed Certificate Timestamp:
                    Version   : v1 (0x0)
                    Log ID    : 29:79:BE:F0:9E:39:39:21:F0:56:73:9F:63:A5:77:E5:
                                BE:57:7D:9C:60:0A:F8:F9:4D:5D:26:5C:25:5D:C7:84
                    Timestamp : Mar 19 00:10:05.187 2022 GMT
                    Extensions: none
                    Signature : ecdsa-with-SHA256
                                30:45:02:20:3E:42:BB:CB:A5:AB:00:B3:99:93:0F:75:
                                E4:E9:D3:3B:CD:B7:A1:18:A1:48:DE:9D:64:91:B3:4A:
                                F0:B7:11:53:02:21:00:AC:6B:A9:A8:4B:8A:0D:EF:25:
                                0D:35:9C:1E:3A:8C:CA:05:CE:72:77:D5:CC:F7:B1:CB:
                                D5:77:13:10:99:72:F7
                Signed Certificate Timestamp:
                    Version   : v1 (0x0)
                    Log ID    : 51:A3:B0:F5:FD:01:79:9C:56:6D:B8:37:78:8F:0C:A4:
                                7A:CC:1B:27:CB:F7:9E:88:42:9A:0D:FE:D4:8B:05:E5
                    Timestamp : Mar 19 00:10:05.313 2022 GMT
                    Extensions: none
                    Signature : ecdsa-with-SHA256
                                30:45:02:20:75:39:0E:3F:BE:8A:FF:11:8A:5A:05:7C:
                                07:01:05:AE:42:95:C7:47:4A:E6:2E:8E:85:AF:4F:AB:
                                31:6F:46:42:02:21:00:C3:C5:A3:94:B4:BA:9B:10:EB:
                                5C:14:12:F7:9E:47:D4:9B:EC:63:F0:12:9C:91:67:73:
                                1D:15:14:CF:89:3F:E7
                Signed Certificate Timestamp:
                    Version   : v1 (0x0)
                    Log ID    : 41:C8:CA:B1:DF:22:46:4A:10:C6:A1:3A:09:42:87:5E:
                                4E:31:8B:1B:03:EB:EB:4B:C7:68:F0:90:62:96:06:F6
                    Timestamp : Mar 19 00:10:05.183 2022 GMT
                    Extensions: none
                    Signature : ecdsa-with-SHA256
                                30:45:02:21:00:D1:B0:AD:9B:97:10:D1:41:E0:4B:3D:
                                00:99:80:4A:D4:F4:29:FA:C2:92:B3:E4:EB:24:4F:A0:
                                38:C0:83:3E:33:02:20:4F:65:5F:B4:F6:23:54:EF:5A:
                                71:3F:2F:09:03:18:01:07:95:8F:EE:88:3E:21:65:F7:
                                D4:31:3C:CE:C0:81:D9
    Signature Algorithm: sha256WithRSAEncryption
         8f:40:3e:60:3e:46:09:8d:7b:49:68:0c:38:74:1c:19:25:1e:
         dc:ad:b5:04:87:f3:1c:6b:a7:9a:0a:40:c9:8f:fa:a4:a6:23:
         ea:c1:9e:49:ba:bc:77:40:74:a7:18:60:3f:11:1a:7a:01:1e:
         58:d3:8e:8d:ec:05:3b:80:c3:88:65:dd:2c:4f:84:54:fe:32:
         2c:57:02:32:ee:ca:49:c7:9a:b8:59:0d:d5:96:9a:e9:bb:31:
         a6:55:72:9c:ed:8a:28:b1:0c:bd:e9:f9:49:a8:9c:07:a3:81:
         60:ad:25:fd:50:42:0d:23:9f:81:a6:b6:3d:5c:bc:8c:c4:39:
         af:34:7d:c3:4f:65:3e:85:40:e0:4f:93:8d:b6:9a:5a:49:bf:
         49:f0:87:5f:f0:fa:86:e2:24:9f:e3:e2:4b:42:98:f8:55:fa:
         99:e6:21:84:0e:91:06:f6:1b:6d:c0:38:60:9f:7f:fb:7c:f5:
         3b:d5:4b:3e:ae:98:c9:26:7c:31:35:b3:1c:96:be:aa:f0:ce:
         9d:57:b7:c5:7d:56:ca:18:72:c2:9f:10:a5:6c:6e:b5:04:c4:
         a3:36:bf:f1:31:0a:12:58:fb:0b:de:78:4d:33:c4:15:22:fc:
         68:37:99:7a:02:ec:71:eb:bb:7e:84:99:37:9d:e8:4f:55:cd:
         8a:f1:68:8c
-----BEGIN CERTIFICATE-----
MIIGjzCCBXegAwIBAgIQBuoQfffT7XuFPuwV8lMZ3jANBgkqhkiG9w0BAQsFADBw
MQswCQYDVQQGEwJVUzEVMBMGA1UEChMMRGlnaUNlcnQgSW5jMRkwFwYDVQQLExB3
d3cuZGlnaWNlcnQuY29tMS8wLQYDVQQDEyZEaWdpQ2VydCBTSEEyIEhpZ2ggQXNz
dXJhbmNlIFNlcnZlciBDQTAeFw0yMjAzMTkwMDAwMDBaFw0yMjA2MTcyMzU5NTla
MGkxCzAJBgNVBAYTAlVTMRMwEQYDVQQIEwpDYWxpZm9ybmlhMRMwEQYDVQQHEwpN
ZW5sbyBQYXJrMRcwFQYDVQQKEw5GYWNlYm9vaywgSW5jLjEXMBUGA1UEAwwOKi5m
YWNlYm9vay5jb20wWTATBgcqhkjOPQIBBggqhkjOPQMBBwNCAARd9t0B+AyPYb8I
rurAolE8F2JeTztraffPM3zVmmjqXYFZTYJSwwN0h8lN9wuzVIxWJUVJcCHFL/sl
LzdT1ogDo4ID9TCCA/EwHwYDVR0jBBgwFoAUUWj/kK8CB3U8zNllZGKiErhZcjsw
HQYDVR0OBBYEFOquDaFiRYSUuwwLBO04ubL6FmSTMIG1BgNVHREEga0wgaqCDiou
ZmFjZWJvb2suY29tgg4qLmZhY2Vib29rLm5ldIILKi5mYmNkbi5uZXSCCyouZmJz
YnguY29tghAqLm0uZmFjZWJvb2suY29tgg8qLm1lc3Nlbmdlci5jb22CDioueHgu
ZmJjZG4ubmV0gg4qLnh5LmZiY2RuLm5ldIIOKi54ei5mYmNkbi5uZXSCDGZhY2Vi
b29rLmNvbYINbWVzc2VuZ2VyLmNvbTAOBgNVHQ8BAf8EBAMCB4AwHQYDVR0lBBYw
FAYIKwYBBQUHAwEGCCsGAQUFBwMCMHUGA1UdHwRuMGwwNKAyoDCGLmh0dHA6Ly9j
cmwzLmRpZ2ljZXJ0LmNvbS9zaGEyLWhhLXNlcnZlci1nNi5jcmwwNKAyoDCGLmh0
dHA6Ly9jcmw0LmRpZ2ljZXJ0LmNvbS9zaGEyLWhhLXNlcnZlci1nNi5jcmwwPgYD
VR0gBDcwNTAzBgZngQwBAgIwKTAnBggrBgEFBQcCARYbaHR0cDovL3d3dy5kaWdp
Y2VydC5jb20vQ1BTMIGDBggrBgEFBQcBAQR3MHUwJAYIKwYBBQUHMAGGGGh0dHA6
Ly9vY3NwLmRpZ2ljZXJ0LmNvbTBNBggrBgEFBQcwAoZBaHR0cDovL2NhY2VydHMu
ZGlnaWNlcnQuY29tL0RpZ2lDZXJ0U0hBMkhpZ2hBc3N1cmFuY2VTZXJ2ZXJDQS5j
cnQwCQYDVR0TBAIwADCCAX4GCisGAQQB1nkCBAIEggFuBIIBagFoAHYAKXm+8J45
OSHwVnOfY6V35b5XfZxgCvj5TV0mXCVdx4QAAAF/n4KEAwAABAMARzBFAiA+QrvL
pasAs5mTD3Xk6dM7zbehGKFI3p1kkbNK8LcRUwIhAKxrqahLig3vJQ01nB46jMoF
znJ31cz3scvVdxMQmXL3AHYAUaOw9f0BeZxWbbg3eI8MpHrMGyfL956IQpoN/tSL
BeUAAAF/n4KEgQAABAMARzBFAiB1OQ4/vor/EYpaBXwHAQWuQpXHR0rmLo6Fr0+r
MW9GQgIhAMPFo5S0upsQ61wUEveeR9Sb7GPwEpyRZ3MdFRTPiT/nAHYAQcjKsd8i
RkoQxqE6CUKHXk4xixsD6+tLx2jwkGKWBvYAAAF/n4KD/wAABAMARzBFAiEA0bCt
m5cQ0UHgSz0AmYBK1PQp+sKSs+TrJE+gOMCDPjMCIE9lX7T2I1TvWnE/LwkDGAEH
lY/uiD4hZffUMTzOwIHZMA0GCSqGSIb3DQEBCwUAA4IBAQCPQD5gPkYJjXtJaAw4
dBwZJR7crbUEh/Mca6eaCkDJj/qkpiPqwZ5Jurx3QHSnGGA/ERp6AR5Y046N7AU7
gMOIZd0sT4RU/jIsVwIy7spJx5q4WQ3VlprpuzGmVXKc7YoosQy96flJqJwHo4Fg
rSX9UEINI5+BprY9XLyMxDmvNH3DT2U+hUDgT5ONtppaSb9J8Idf8PqG4iSf4+JL
Qpj4VfqZ5iGEDpEG9httwDhgn3/7fPU71Us+rpjJJnwxNbMclr6q8M6dV7fFfVbK
GHLCnxClbG61BMSjNr/xMQoSWPsL3nhNM8QVIvxoN5l6Auxx67t+hJk3nehPVc2K
8WiM
-----END CERTIFICATE-----
